target datalayout = "e-m:e-p270:32:32-p271:32:32-p272:64:64-i64:64-i128:128-f80:128-n8:16:32:64-S128"
target triple = "x86_64-pc-linux-gnu"

%struct.H5FD_driver_prop_t = type { i64, ptr, ptr }
%struct.H5P_genplist_t = type { ptr, i64, i64, i8, ptr, ptr }

@H5P_CLS_FILE_ACCESS_ID_g = external global i64, align 8
@H5P_init_g = external global i8, align 1
@H5_libterm_g = external global i8, align 1
@.str.2 = private unnamed_addr constant [101 x i8] c"generated/home/dtcxzyw/WorkSpace/Projects/compilers/llvm-opt-benchmark/bench/hdf5/hdf5/src/H5Pfapl.c\00", align 1
@H5E_CANTGET_g = external global i64, align 8
@.str.10 = private unnamed_addr constant [9 x i8] c"vfd_info\00", align 1
@H5E_PLIST_g = external global i64, align 8
@H5E_FUNC_g = external global i64, align 8
@H5E_CANTINIT_g = external global i64, align 8
@.str.16 = private unnamed_addr constant [32 x i8] c"interface initialization failed\00", align 1
@H5E_BADTYPE_g = external global i64, align 8
@.str.28 = private unnamed_addr constant [32 x i8] c"not a file access property list\00", align 1
@__func__.H5P_peek_driver = private unnamed_addr constant [16 x i8] c"H5P_peek_driver\00", align 1
@.str.36 = private unnamed_addr constant [20 x i8] c"can't get driver ID\00", align 1
@H5FD_SEC2_id_g = external global i64, align 8

; Function Attrs: nounwind uwtable
define i64 @H5P_peek_driver(ptr noundef %0) #0 {
  %2 = alloca i64, align 8
  %3 = alloca ptr, align 8
  %4 = alloca i64, align 8
  %5 = alloca i8, align 1
  %6 = alloca %struct.H5FD_driver_prop_t, align 8
  %7 = alloca i32, align 4
  store ptr %0, ptr %3, align 8, !tbaa !28
  call void @llvm.lifetime.start.p0(i64 8, ptr %4) #10
  store i64 -1, ptr %4, align 8, !tbaa !8
  call void @llvm.lifetime.start.p0(i64 1, ptr %5) #10
  store i8 0, ptr %5, align 1, !tbaa !22
  %8 = load i8, ptr @H5P_init_g, align 1, !tbaa !22, !range !24, !noundef !25
  %9 = trunc i8 %8 to i1
  br i1 %9, label %14, label %10

10:                                               ; preds = %1
  %11 = load i8, ptr @H5_libterm_g, align 1, !tbaa !22, !range !24, !noundef !25
  %12 = trunc i8 %11 to i1
  %13 = xor i1 %12, true
  br label %14

14:                                               ; preds = %10, %1
  %15 = phi i1 [ false, %1 ], [ %13, %10 ]
  %16 = xor i1 %15, true
  %17 = xor i1 %16, true
  %18 = zext i1 %17 to i32
  %19 = sext i32 %18 to i64
  %20 = call i64 @llvm.expect.i64(i64 %19, i64 0)
  %21 = icmp ne i64 %20, 0
  br i1 %21, label %22, label %45

22:                                               ; preds = %14
  store i8 1, ptr @H5P_init_g, align 1, !tbaa !22
  %23 = call i32 @H5P__init_package()
  %24 = icmp slt i32 %23, 0
  br i1 %24, label %25, label %44

25:                                               ; preds = %22
  store i8 0, ptr @H5P_init_g, align 1, !tbaa !22
  br label %26

26:                                               ; preds = %25
  br label %27

27:                                               ; preds = %26
  br label %28

28:                                               ; preds = %27
  %29 = load i64, ptr @H5E_FUNC_g, align 8, !tbaa !8
  %30 = load i64, ptr @H5E_CANTINIT_g, align 8, !tbaa !8
  %31 = call i32 (ptr, ptr, i32, i64, i64, ptr, ...) @H5E_printf_stack(ptr noundef @.str.2, ptr noundef @__func__.H5P_peek_driver, i32 noundef 1421, i64 noundef %29, i64 noundef %30, ptr noundef @.str.16)
  br label %32

32:                                               ; preds = %28
  br label %33

33:                                               ; preds = %32
  store i8 1, ptr %5, align 1, !tbaa !22
  %34 = load i8, ptr %5, align 1, !tbaa !22, !range !24, !noundef !25
  %35 = trunc i8 %34 to i1
  %36 = zext i1 %35 to i8
  store i8 %36, ptr %5, align 1, !tbaa !22
  br label %37

37:                                               ; preds = %33
  br label %38

38:                                               ; preds = %37
  br label %39

39:                                               ; preds = %38
  store i64 -1, ptr %4, align 8, !tbaa !8
  br label %121

40:                                               ; No predecessors!
  br label %41

41:                                               ; preds = %40
  br label %42

42:                                               ; preds = %41
  br label %43

43:                                               ; preds = %42
  br label %44

44:                                               ; preds = %43, %22
  br label %45

45:                                               ; preds = %44, %14
  %46 = load i8, ptr @H5P_init_g, align 1, !tbaa !22, !range !24, !noundef !25
  %47 = trunc i8 %46 to i1
  br i1 %47, label %52, label %48

48:                                               ; preds = %45
  %49 = load i8, ptr @H5_libterm_g, align 1, !tbaa !22, !range !24, !noundef !25
  %50 = trunc i8 %49 to i1
  %51 = xor i1 %50, true
  br label %52

52:                                               ; preds = %48, %45
  %53 = phi i1 [ true, %45 ], [ %51, %48 ]
  %54 = xor i1 %53, true
  %55 = xor i1 %54, true
  %56 = zext i1 %55 to i32
  %57 = sext i32 %56 to i64
  %58 = call i64 @llvm.expect.i64(i64 %57, i64 1)
  %59 = icmp ne i64 %58, 0
  br i1 %59, label %60, label %122

60:                                               ; preds = %52
  %61 = load ptr, ptr %3, align 8, !tbaa !28
  %62 = getelementptr inbounds nuw %struct.H5P_genplist_t, ptr %61, i32 0, i32 1
  %63 = load i64, ptr %62, align 8, !tbaa !33
  %64 = load i64, ptr @H5P_CLS_FILE_ACCESS_ID_g, align 8, !tbaa !8
  %65 = call i32 @H5P_isa_class(i64 noundef %63, i64 noundef %64)
  %66 = icmp eq i32 1, %65
  br i1 %66, label %67, label %96

67:                                               ; preds = %60
  call void @llvm.lifetime.start.p0(i64 24, ptr %6) #10
  %68 = load ptr, ptr %3, align 8, !tbaa !28
  %69 = call i32 @H5P_peek(ptr noundef %68, ptr noundef @.str.10, ptr noundef %6)
  %70 = icmp slt i32 %69, 0
  br i1 %70, label %71, label %90

71:                                               ; preds = %67
  br label %72

72:                                               ; preds = %71
  br label %73

73:                                               ; preds = %72
  br label %74

74:                                               ; preds = %73
  %75 = load i64, ptr @H5E_PLIST_g, align 8, !tbaa !8
  %76 = load i64, ptr @H5E_CANTGET_g, align 8, !tbaa !8
  %77 = call i32 (ptr, ptr, i32, i64, i64, ptr, ...) @H5E_printf_stack(ptr noundef @.str.2, ptr noundef @__func__.H5P_peek_driver, i32 noundef 1428, i64 noundef %75, i64 noundef %76, ptr noundef @.str.36)
  br label %78

78:                                               ; preds = %74
  br label %79

79:                                               ; preds = %78
  store i8 1, ptr %5, align 1, !tbaa !22
  %80 = load i8, ptr %5, align 1, !tbaa !22, !range !24, !noundef !25
  %81 = trunc i8 %80 to i1
  %82 = zext i1 %81 to i8
  store i8 %82, ptr %5, align 1, !tbaa !22
  br label %83

83:                                               ; preds = %79
  br label %84

84:                                               ; preds = %83
  br label %85

85:                                               ; preds = %84
  store i64 -1, ptr %4, align 8, !tbaa !8
  store i32 10, ptr %7, align 4
  br label %93

86:                                               ; No predecessors!
  br label %87

87:                                               ; preds = %86
  br label %88

88:                                               ; preds = %87
  br label %89

89:                                               ; preds = %88
  br label %90

90:                                               ; preds = %89, %67
  %91 = getelementptr inbounds nuw %struct.H5FD_driver_prop_t, ptr %6, i32 0, i32 0
  %92 = load i64, ptr %91, align 8, !tbaa !10
  store i64 %92, ptr %4, align 8, !tbaa !8
  store i32 0, ptr %7, align 4
  br label %93

93:                                               ; preds = %85, %90
  call void @llvm.lifetime.end.p0(i64 24, ptr %6) #10
  %94 = load i32, ptr %7, align 4
  switch i32 %94, label %124 [
    i32 0, label %95
    i32 10, label %121
  ]

95:                                               ; preds = %93
  br label %115

96:                                               ; preds = %60
  br label %97

97:                                               ; preds = %96
  br label %98

98:                                               ; preds = %97
  br label %99

99:                                               ; preds = %98
  %100 = load i64, ptr @H5E_PLIST_g, align 8, !tbaa !8
  %101 = load i64, ptr @H5E_BADTYPE_g, align 8, !tbaa !8
  %102 = call i32 (ptr, ptr, i32, i64, i64, ptr, ...) @H5E_printf_stack(ptr noundef @.str.2, ptr noundef @__func__.H5P_peek_driver, i32 noundef 1432, i64 noundef %100, i64 noundef %101, ptr noundef @.str.28)
  br label %103

103:                                              ; preds = %99
  br label %104

104:                                              ; preds = %103
  store i8 1, ptr %5, align 1, !tbaa !22
  %105 = load i8, ptr %5, align 1, !tbaa !22, !range !24, !noundef !25
  %106 = trunc i8 %105 to i1
  %107 = zext i1 %106 to i8
  store i8 %107, ptr %5, align 1, !tbaa !22
  br label %108

108:                                              ; preds = %104
  br label %109

109:                                              ; preds = %108
  br label %110

110:                                              ; preds = %109
  store i64 -1, ptr %4, align 8, !tbaa !8
  br label %121

111:                                              ; No predecessors!
  br label %112

112:                                              ; preds = %111
  br label %113

113:                                              ; preds = %112
  br label %114

114:                                              ; preds = %113
  br label %115

115:                                              ; preds = %114, %95
  %116 = load i64, ptr %4, align 8, !tbaa !8
  %117 = icmp eq i64 0, %116
  br i1 %117, label %118, label %120

118:                                              ; preds = %115
  %119 = load i64, ptr @H5FD_SEC2_id_g, align 8, !tbaa !8
  store i64 %119, ptr %4, align 8, !tbaa !8
  br label %120

120:                                              ; preds = %118, %115
  br label %121

121:                                              ; preds = %120, %93, %110, %39
  br label %122

122:                                              ; preds = %121, %52
  %123 = load i64, ptr %4, align 8, !tbaa !8
  store i64 %123, ptr %2, align 8
  store i32 1, ptr %7, align 4
  br label %124

124:                                              ; preds = %122, %93
  call void @llvm.lifetime.end.p0(i64 1, ptr %5) #10
  call void @llvm.lifetime.end.p0(i64 8, ptr %4) #10
  %125 = load i64, ptr %2, align 8
  ret i64 %125
}